target datalayout = "e-m:e-p270:32:32-p271:32:32-p272:64:64-i64:64-i128:128-f80:128-n8:16:32:64-S128"
target triple = "x86_64-pc-linux-gnu"

%"class.cv::Point3_" = type { float, float, float }

; Function Attrs: mustprogress nounwind uwtable
define hidden noundef zeroext i1 @_ZN2cv6dynafu5PtCmpENS_7Point3_IfEES2_(<2 x float> %0, float %1, <2 x float> %2, float %3) #8 {
  %5 = alloca %"class.cv::Point3_", align 4
  %6 = alloca { <2 x float>, float }, align 4
  %7 = alloca %"class.cv::Point3_", align 4
  %8 = alloca { <2 x float>, float }, align 4
  %9 = getelementptr inbounds { <2 x float>, float }, ptr %6, i32 0, i32 0
  store <2 x float> %0, ptr %9, align 4
  %10 = getelementptr inbounds { <2 x float>, float }, ptr %6, i32 0, i32 1
  store float %1, ptr %10, align 4
  call void @llvm.memcpy.p0.p0.i64(ptr align 4 %5, ptr align 4 %6, i64 12, i1 false)
  %11 = getelementptr inbounds { <2 x float>, float }, ptr %8, i32 0, i32 0
  store <2 x float> %2, ptr %11, align 4
  %12 = getelementptr inbounds { <2 x float>, float }, ptr %8, i32 0, i32 1
  store float %3, ptr %12, align 4
  call void @llvm.memcpy.p0.p0.i64(ptr align 4 %7, ptr align 4 %8, i64 12, i1 false)
  %13 = getelementptr inbounds %"class.cv::Point3_", ptr %5, i32 0, i32 0
  %14 = load float, ptr %13, align 4
  %15 = getelementptr inbounds %"class.cv::Point3_", ptr %7, i32 0, i32 0
  %16 = load float, ptr %15, align 4
  %17 = fcmp olt float %14, %16
  br i1 %17, label %50, label %18

18:                                               ; preds = %4
  %19 = getelementptr inbounds %"class.cv::Point3_", ptr %5, i32 0, i32 0
  %20 = load float, ptr %19, align 4
  %21 = getelementptr inbounds %"class.cv::Point3_", ptr %7, i32 0, i32 0
  %22 = load float, ptr %21, align 4
  %23 = fcmp oge float %20, %22
  br i1 %23, label %24, label %30

24:                                               ; preds = %18
  %25 = getelementptr inbounds %"class.cv::Point3_", ptr %5, i32 0, i32 1
  %26 = load float, ptr %25, align 4
  %27 = getelementptr inbounds %"class.cv::Point3_", ptr %7, i32 0, i32 1
  %28 = load float, ptr %27, align 4
  %29 = fcmp olt float %26, %28
  br i1 %29, label %50, label %30

30:                                               ; preds = %24, %18
  %31 = getelementptr inbounds %"class.cv::Point3_", ptr %5, i32 0, i32 0
  %32 = load float, ptr %31, align 4
  %33 = getelementptr inbounds %"class.cv::Point3_", ptr %7, i32 0, i32 0
  %34 = load float, ptr %33, align 4
  %35 = fcmp oge float %32, %34
  br i1 %35, label %36, label %48

36:                                               ; preds = %30
  %37 = getelementptr inbounds %"class.cv::Point3_", ptr %5, i32 0, i32 1
  %38 = load float, ptr %37, align 4
  %39 = getelementptr inbounds %"class.cv::Point3_", ptr %7, i32 0, i32 1
  %40 = load float, ptr %39, align 4
  %41 = fcmp oge float %38, %40
  br i1 %41, label %42, label %48

42:                                               ; preds = %36
  %43 = getelementptr inbounds %"class.cv::Point3_", ptr %5, i32 0, i32 2
  %44 = load float, ptr %43, align 4
  %45 = getelementptr inbounds %"class.cv::Point3_", ptr %7, i32 0, i32 2
  %46 = load float, ptr %45, align 4
  %47 = fcmp olt float %44, %46
  br label %48

48:                                               ; preds = %42, %36, %30
  %49 = phi i1 [ false, %36 ], [ false, %30 ], [ %47, %42 ]
  br label %50

50:                                               ; preds = %48, %24, %4
  %51 = phi i1 [ true, %24 ], [ true, %4 ], [ %49, %48 ]
  ret i1 %51
}