; Function Attrs: mustprogress nofree norecurse nosync nounwind willreturn memory(none) uwtable
define hidden noundef zeroext i1 @_ZN2cv6dynafu5PtCmpENS_7Point3_IfEES2_(<2 x float> %0, float %1, <2 x float> %2, float %3) local_unnamed_addr #8 {
  %.sroa.010.0.vec.extract = extractelement <2 x float> %0, i64 0
  %.sroa.01.0.vec.extract = extractelement <2 x float> %2, i64 0
  %5 = fcmp olt float %.sroa.010.0.vec.extract, %.sroa.01.0.vec.extract
  br i1 %5, label %13, label %6

6:                                                ; preds = %4
  %7 = fcmp oge float %.sroa.010.0.vec.extract, %.sroa.01.0.vec.extract
  %.sroa.010.4.vec.extract = extractelement <2 x float> %0, i64 1
  %.sroa.01.4.vec.extract = extractelement <2 x float> %2, i64 1
  %8 = fcmp olt float %.sroa.010.4.vec.extract, %.sroa.01.4.vec.extract
  %or.cond = select i1 %7, i1 %8, i1 false
  %.not = xor i1 %7, true
  %brmerge = or i1 %or.cond, %.not
  br i1 %brmerge, label %13, label %9

9:                                                ; preds = %6
  %10 = fcmp ult float %.sroa.010.4.vec.extract, %.sroa.01.4.vec.extract
  br i1 %10, label %13, label %11

11:                                               ; preds = %9
  %12 = fcmp olt float %1, %3
  br label %13

13:                                               ; preds = %6, %9, %11, %4
  %14 = phi i1 [ true, %4 ], [ false, %9 ], [ %12, %11 ], [ %or.cond, %6 ]
  ret i1 %14
}